; Function Attrs: mustprogress uwtable
define void @_ZNK9grpc_core33XdsClusterSpecifierPluginRegistry14PopulateSymtabEP11upb_DefPool(ptr noundef nonnull readonly align 8 dereferenceable(48) %0, ptr noundef %1) local_unnamed_addr #4 align 2 {
  %3 = getelementptr inbounds nuw i8, ptr %0, i64 24
  %4 = load ptr, ptr %3, align 8, !tbaa !77
  %5 = getelementptr inbounds nuw i8, ptr %0, i64 8
  %.not10 = icmp eq ptr %4, %5
  br i1 %.not10, label %._crit_edge, label %.lr.ph

._crit_edge:                                      ; preds = %.lr.ph, %2
  ret void

.lr.ph:                                           ; preds = %2, %.lr.ph
  %.sroa.07.011 = phi ptr [ %11, %.lr.ph ], [ %4, %2 ]
  %6 = getelementptr inbounds nuw i8, ptr %.sroa.07.011, i64 48
  %7 = load ptr, ptr %6, align 8, !tbaa !89
  %8 = load ptr, ptr %7, align 8, !tbaa !84
  %9 = getelementptr inbounds nuw i8, ptr %8, i64 24
  %10 = load ptr, ptr %9, align 8
  tail call void %10(ptr noundef nonnull align 8 dereferenceable(8) %7, ptr noundef %1)
  %11 = tail call noundef ptr @_ZSt18_Rb_tree_incrementPKSt18_Rb_tree_node_base(ptr noundef %.sroa.07.011) #30
  %.not = icmp eq ptr %11, %5
  br i1 %.not, label %._crit_edge, label %.lr.ph
}